; Function Attrs: mustprogress uwtable
define noundef nonnull align 8 dereferenceable(56) ptr @_ZN32pxrInternal_v0_24__pxrReserved__20HdSceneGlobalsSchema30GetActiveRenderPassPrimLocatorEv() local_unnamed_addr #1 align 2 personality ptr @__gxx_personality_v0 {
  %1 = load atomic i8, ptr @_ZGVZN32pxrInternal_v0_24__pxrReserved__20HdSceneGlobalsSchema30GetActiveRenderPassPrimLocatorEvE7locator acquire, align 8
  %2 = icmp eq i8 %1, 0
  br i1 %2, label %3, label %13, !prof !26

3:                                                ; preds = %0
  %4 = tail call i32 @__cxa_guard_acquire(ptr nonnull @_ZGVZN32pxrInternal_v0_24__pxrReserved__20HdSceneGlobalsSchema30GetActiveRenderPassPrimLocatorEvE7locator) #12
  %.not = icmp eq i32 %4, 0
  br i1 %.not, label %13, label %5

5:                                                ; preds = %3
  %6 = invoke noundef nonnull align 8 dereferenceable(56) ptr @_ZN32pxrInternal_v0_24__pxrReserved__20HdSceneGlobalsSchema17GetDefaultLocatorEv()
          to label %7 unwind label %14

7:                                                ; preds = %5
  %8 = invoke noundef ptr @_ZNK32pxrInternal_v0_24__pxrReserved__12TfStaticDataINS_42HdSceneGlobalsSchemaTokens_StaticTokenTypeENS_27Tf_StaticDataDefaultFactoryIS1_EEEptEv(ptr noundef nonnull align 8 dereferenceable(8) @_ZN32pxrInternal_v0_24__pxrReserved__26HdSceneGlobalsSchemaTokensE)
          to label %9 unwind label %14

9:                                                ; preds = %7
  %10 = getelementptr inbounds nuw i8, ptr %8, i64 8
  invoke void @_ZNK32pxrInternal_v0_24__pxrReserved__19HdDataSourceLocator6AppendERKNS_7TfTokenE(ptr dead_on_unwind nonnull writable sret(%"class.pxrInternal_v0_24__pxrReserved__::HdDataSourceLocator") align 8 @_ZZN32pxrInternal_v0_24__pxrReserved__20HdSceneGlobalsSchema30GetActiveRenderPassPrimLocatorEvE7locator, ptr noundef nonnull align 8 dereferenceable(56) @_ZZN32pxrInternal_v0_24__pxrReserved__20HdSceneGlobalsSchema17GetDefaultLocatorEvE7locator, ptr noundef nonnull align 8 dereferenceable(8) %10)
          to label %11 unwind label %14

11:                                               ; preds = %9
  %12 = tail call i32 @__cxa_atexit(ptr nonnull @_ZN32pxrInternal_v0_24__pxrReserved__19HdDataSourceLocatorD2Ev, ptr nonnull @_ZZN32pxrInternal_v0_24__pxrReserved__20HdSceneGlobalsSchema30GetActiveRenderPassPrimLocatorEvE7locator, ptr nonnull @__dso_handle) #12
  tail call void @__cxa_guard_release(ptr nonnull @_ZGVZN32pxrInternal_v0_24__pxrReserved__20HdSceneGlobalsSchema30GetActiveRenderPassPrimLocatorEvE7locator) #12
  br label %13

13:                                               ; preds = %11, %3, %0
  ret ptr @_ZZN32pxrInternal_v0_24__pxrReserved__20HdSceneGlobalsSchema30GetActiveRenderPassPrimLocatorEvE7locator

14:                                               ; preds = %9, %7, %5
  %15 = landingpad { ptr, i32 }
          cleanup
  tail call void @__cxa_guard_abort(ptr nonnull @_ZGVZN32pxrInternal_v0_24__pxrReserved__20HdSceneGlobalsSchema30GetActiveRenderPassPrimLocatorEvE7locator) #12
  resume { ptr, i32 } %15
}